target datalayout = "e-m:e-p270:32:32-p271:32:32-p272:64:64-i64:64-i128:128-f80:128-n8:16:32:64-S128"
target triple = "x86_64-pc-linux-gnu"

%struct.ARKodeMemRec = type { ptr, double, ptr, i32, i32, double, double, ptr, i32, double, ptr, i32, i32, ptr, ptr, i32, ptr, ptr, i32, ptr, ptr, ptr, ptr, ptr, ptr, ptr, ptr, ptr, ptr, ptr, ptr, ptr, ptr, ptr, i32, ptr, ptr, i32, ptr, i32, ptr, ptr, ptr, ptr, ptr, ptr, ptr, ptr, ptr, ptr, ptr, ptr, ptr, ptr, ptr, ptr, ptr, ptr, ptr, ptr, ptr, ptr, ptr, ptr, ptr, ptr, i32, ptr, ptr, ptr, ptr, ptr, ptr, ptr, i32, ptr, ptr, ptr, i32, ptr, ptr, ptr, ptr, ptr, ptr, ptr, i32, i32, i32, i32, double, double, double, double, double, double, double, double, double, double, i32, ptr, i64, i32, i32, i32, i32, i64, i64, i32, i64, i64, i64, i64, i64, i64, i64, double, double, double, double, double, i32, double, double, i32, i32, i32, i32, i32, i32, i32, i32, ptr, i32, ptr, ptr, ptr, ptr, i32, i32, i32 }
%struct.ARKLsMemRec = type { i32, i32, i32, ptr, ptr, i32, i32, double, double, ptr, ptr, ptr, ptr, ptr, ptr, ptr, i64, double, i64, i64, i64, i64, i64, i64, i64, i64, i64, double, ptr, ptr, ptr, ptr, i32, ptr, ptr, ptr, ptr, i32, ptr, ptr, i32 }

@.str = private unnamed_addr constant [118 x i8] c"generated/home/dtcxzyw/WorkSpace/Projects/compilers/llvm-opt-benchmark/bench/sundials/sundials/src/arkode/arkode_ls.c\00", align 1
@.str.38 = private unnamed_addr constant [40 x i8] c"An error occurred in ark_step_getgammas\00", align 1
@__func__.arkLsPSetup = private unnamed_addr constant [12 x i8] c"arkLsPSetup\00", align 1
@.str.63 = private unnamed_addr constant [27 x i8] c"Integrator memory is NULL.\00", align 1
@.str.64 = private unnamed_addr constant [30 x i8] c"Linear solver memory is NULL.\00", align 1

; Function Attrs: nounwind uwtable
define i32 @arkLs_AccessARKODELMem(ptr noundef %0, ptr noundef %1, ptr noundef %2, ptr noundef %3) #0 {
  %5 = alloca i32, align 4
  %6 = alloca ptr, align 8
  %7 = alloca ptr, align 8
  %8 = alloca ptr, align 8
  %9 = alloca ptr, align 8
  %10 = alloca ptr, align 8
  %11 = alloca i32, align 4
  store ptr %0, ptr %6, align 8, !tbaa !3
  store ptr %1, ptr %7, align 8, !tbaa !155
  store ptr %2, ptr %8, align 8, !tbaa !170
  store ptr %3, ptr %9, align 8, !tbaa !157
  call void @llvm.lifetime.start.p0(i64 8, ptr %10) #7
  %12 = load ptr, ptr %6, align 8, !tbaa !3
  %13 = icmp eq ptr %12, null
  br i1 %13, label %14, label %16

14:                                               ; preds = %4
  %15 = load ptr, ptr %7, align 8, !tbaa !155
  call void (ptr, i32, i32, ptr, ptr, ptr, ...) @arkProcessError(ptr noundef null, i32 noundef -1, i32 noundef 4050, ptr noundef %15, ptr noundef @.str, ptr noundef @.str.63)
  store i32 -1, ptr %5, align 4
  store i32 1, ptr %11, align 4
  br label %35

16:                                               ; preds = %4
  %17 = load ptr, ptr %6, align 8, !tbaa !3
  %18 = load ptr, ptr %8, align 8, !tbaa !170
  store ptr %17, ptr %18, align 8, !tbaa !11
  %19 = load ptr, ptr %8, align 8, !tbaa !170
  %20 = load ptr, ptr %19, align 8, !tbaa !11
  %21 = getelementptr inbounds nuw %struct.ARKodeMemRec, ptr %20, i32 0, i32 42
  %22 = load ptr, ptr %21, align 8, !tbaa !41
  %23 = load ptr, ptr %8, align 8, !tbaa !170
  %24 = load ptr, ptr %23, align 8, !tbaa !11
  %25 = call ptr %22(ptr noundef %24)
  store ptr %25, ptr %10, align 8, !tbaa !3
  %26 = load ptr, ptr %10, align 8, !tbaa !3
  %27 = icmp eq ptr %26, null
  br i1 %27, label %28, label %32

28:                                               ; preds = %16
  %29 = load ptr, ptr %8, align 8, !tbaa !170
  %30 = load ptr, ptr %29, align 8, !tbaa !11
  %31 = load ptr, ptr %7, align 8, !tbaa !155
  call void (ptr, i32, i32, ptr, ptr, ptr, ...) @arkProcessError(ptr noundef %30, i32 noundef -2, i32 noundef 4058, ptr noundef %31, ptr noundef @.str, ptr noundef @.str.64)
  store i32 -2, ptr %5, align 4
  store i32 1, ptr %11, align 4
  br label %35

32:                                               ; preds = %16
  %33 = load ptr, ptr %10, align 8, !tbaa !3
  %34 = load ptr, ptr %9, align 8, !tbaa !157
  store ptr %33, ptr %34, align 8, !tbaa !44
  store i32 0, ptr %5, align 4
  store i32 1, ptr %11, align 4
  br label %35

35:                                               ; preds = %32, %28, %14
  call void @llvm.lifetime.end.p0(i64 8, ptr %10) #7
  %36 = load i32, ptr %5, align 4
  ret i32 %36
}

; Function Attrs: nounwind uwtable
define i32 @arkLsPSetup(ptr noundef %0) #0 {
  %2 = alloca i32, align 4
  %3 = alloca ptr, align 8
  %4 = alloca ptr, align 8
  %5 = alloca ptr, align 8
  %6 = alloca double, align 8
  %7 = alloca double, align 8
  %8 = alloca i32, align 4
  %9 = alloca ptr, align 8
  %10 = alloca i32, align 4
  %11 = alloca i32, align 4
  store ptr %0, ptr %3, align 8, !tbaa !3
  call void @llvm.lifetime.start.p0(i64 8, ptr %4) #7
  call void @llvm.lifetime.start.p0(i64 8, ptr %5) #7
  call void @llvm.lifetime.start.p0(i64 8, ptr %6) #7
  call void @llvm.lifetime.start.p0(i64 8, ptr %7) #7
  call void @llvm.lifetime.start.p0(i64 4, ptr %8) #7
  call void @llvm.lifetime.start.p0(i64 8, ptr %9) #7
  call void @llvm.lifetime.start.p0(i64 4, ptr %10) #7
  %12 = load ptr, ptr %3, align 8, !tbaa !3
  %13 = call i32 @arkLs_AccessARKODELMem(ptr noundef %12, ptr noundef @__func__.arkLsPSetup, ptr noundef %4, ptr noundef %5)
  store i32 %13, ptr %10, align 4, !tbaa !30
  %14 = load i32, ptr %10, align 4, !tbaa !30
  %15 = icmp ne i32 %14, 0
  br i1 %15, label %16, label %18

16:                                               ; preds = %1
  %17 = load i32, ptr %10, align 4, !tbaa !30
  store i32 %17, ptr %2, align 4
  store i32 1, ptr %11, align 4
  br label %56

18:                                               ; preds = %1
  %19 = load ptr, ptr %4, align 8, !tbaa !11
  %20 = getelementptr inbounds nuw %struct.ARKodeMemRec, ptr %19, i32 0, i32 44
  %21 = load ptr, ptr %20, align 8, !tbaa !43
  %22 = load ptr, ptr %3, align 8, !tbaa !3
  %23 = call i32 %21(ptr noundef %22, ptr noundef %6, ptr noundef %7, ptr noundef %9, ptr noundef %8)
  store i32 %23, ptr %10, align 4, !tbaa !30
  %24 = load i32, ptr %10, align 4, !tbaa !30
  %25 = icmp ne i32 %24, 0
  br i1 %25, label %26, label %30

26:                                               ; preds = %18
  %27 = load ptr, ptr %4, align 8, !tbaa !11
  %28 = load i32, ptr %10, align 4, !tbaa !30
  call void (ptr, i32, i32, ptr, ptr, ptr, ...) @arkProcessError(ptr noundef %27, i32 noundef %28, i32 noundef 2378, ptr noundef @__func__.arkLsPSetup, ptr noundef @.str, ptr noundef @.str.38)
  %29 = load i32, ptr %10, align 4, !tbaa !30
  store i32 %29, ptr %2, align 4
  store i32 1, ptr %11, align 4
  br label %56

30:                                               ; preds = %18
  %31 = load ptr, ptr %5, align 8, !tbaa !44
  %32 = getelementptr inbounds nuw %struct.ARKLsMemRec, ptr %31, i32 0, i32 28
  %33 = load ptr, ptr %32, align 8, !tbaa !61
  %34 = load ptr, ptr %5, align 8, !tbaa !44
  %35 = getelementptr inbounds nuw %struct.ARKLsMemRec, ptr %34, i32 0, i32 17
  %36 = load double, ptr %35, align 8, !tbaa !98
  %37 = load ptr, ptr %5, align 8, !tbaa !44
  %38 = getelementptr inbounds nuw %struct.ARKLsMemRec, ptr %37, i32 0, i32 14
  %39 = load ptr, ptr %38, align 8, !tbaa !99
  %40 = load ptr, ptr %5, align 8, !tbaa !44
  %41 = getelementptr inbounds nuw %struct.ARKLsMemRec, ptr %40, i32 0, i32 15
  %42 = load ptr, ptr %41, align 8, !tbaa !100
  %43 = load ptr, ptr %5, align 8, !tbaa !44
  %44 = getelementptr inbounds nuw %struct.ARKLsMemRec, ptr %43, i32 0, i32 5
  %45 = load i32, ptr %44, align 8, !tbaa !67
  %46 = icmp ne i32 %45, 0
  %47 = xor i1 %46, true
  %48 = zext i1 %47 to i32
  %49 = load ptr, ptr %9, align 8, !tbaa !87
  %50 = load double, ptr %6, align 8, !tbaa !77
  %51 = load ptr, ptr %5, align 8, !tbaa !44
  %52 = getelementptr inbounds nuw %struct.ARKLsMemRec, ptr %51, i32 0, i32 31
  %53 = load ptr, ptr %52, align 8, !tbaa !65
  %54 = call i32 %33(double noundef %36, ptr noundef %39, ptr noundef %42, i32 noundef %48, ptr noundef %49, double noundef %50, ptr noundef %53)
  store i32 %54, ptr %10, align 4, !tbaa !30
  %55 = load i32, ptr %10, align 4, !tbaa !30
  store i32 %55, ptr %2, align 4
  store i32 1, ptr %11, align 4
  br label %56

56:                                               ; preds = %30, %26, %16
  call void @llvm.lifetime.end.p0(i64 4, ptr %10) #7
  call void @llvm.lifetime.end.p0(i64 8, ptr %9) #7
  call void @llvm.lifetime.end.p0(i64 4, ptr %8) #7
  call void @llvm.lifetime.end.p0(i64 8, ptr %7) #7
  call void @llvm.lifetime.end.p0(i64 8, ptr %6) #7
  call void @llvm.lifetime.end.p0(i64 8, ptr %5) #7
  call void @llvm.lifetime.end.p0(i64 8, ptr %4) #7
  %57 = load i32, ptr %2, align 4
  ret i32 %57
}