; Function Attrs: nounwind uwtable
define i32 @arkLsPSetup(ptr noundef %0) #0 {
  %2 = alloca double, align 8
  %3 = alloca double, align 8
  %4 = alloca i32, align 4
  %5 = alloca ptr, align 8
  call void @llvm.lifetime.start.p0(i64 8, ptr nonnull %2) #13
  call void @llvm.lifetime.start.p0(i64 8, ptr nonnull %3) #13
  call void @llvm.lifetime.start.p0(i64 4, ptr nonnull %4) #13
  call void @llvm.lifetime.start.p0(i64 8, ptr nonnull %5) #13
  %6 = icmp eq ptr %0, null
  br i1 %6, label %7, label %8

7:                                                ; preds = %1
  tail call void (ptr, i32, i32, ptr, ptr, ptr, ...) @arkProcessError(ptr noundef null, i32 noundef -1, i32 noundef 4050, ptr noundef nonnull @__func__.arkLsPSetup, ptr noundef nonnull @.str, ptr noundef nonnull @.str.63) #13
  br label %arkLs_AccessARKODELMem.exit.thread

8:                                                ; preds = %1
  %9 = getelementptr inbounds nuw i8, ptr %0, i64 320
  %10 = load ptr, ptr %9, align 8, !tbaa !33
  %11 = tail call ptr %10(ptr noundef nonnull %0) #13
  %12 = icmp eq ptr %11, null
  br i1 %12, label %13, label %arkLs_AccessARKODELMem.exit

13:                                               ; preds = %8
  tail call void (ptr, i32, i32, ptr, ptr, ptr, ...) @arkProcessError(ptr noundef nonnull %0, i32 noundef -2, i32 noundef 4058, ptr noundef nonnull @__func__.arkLsPSetup, ptr noundef nonnull @.str, ptr noundef nonnull @.str.64) #13
  br label %arkLs_AccessARKODELMem.exit.thread

arkLs_AccessARKODELMem.exit:                      ; preds = %8
  %14 = getelementptr inbounds nuw i8, ptr %0, i64 336
  %15 = load ptr, ptr %14, align 8, !tbaa !35
  %16 = call i32 %15(ptr noundef nonnull %0, ptr noundef nonnull %2, ptr noundef nonnull %3, ptr noundef nonnull %5, ptr noundef nonnull %4) #13
  %.not10 = icmp eq i32 %16, 0
  br i1 %.not10, label %18, label %17

17:                                               ; preds = %arkLs_AccessARKODELMem.exit
  call void (ptr, i32, i32, ptr, ptr, ptr, ...) @arkProcessError(ptr noundef nonnull %0, i32 noundef %16, i32 noundef 2378, ptr noundef nonnull @__func__.arkLsPSetup, ptr noundef nonnull @.str, ptr noundef nonnull @.str.38) #13
  br label %arkLs_AccessARKODELMem.exit.thread

18:                                               ; preds = %arkLs_AccessARKODELMem.exit
  %19 = getelementptr inbounds nuw i8, ptr %11, i64 208
  %20 = load ptr, ptr %19, align 8, !tbaa !89
  %21 = getelementptr inbounds nuw i8, ptr %11, i64 120
  %22 = load double, ptr %21, align 8, !tbaa !76
  %23 = getelementptr inbounds nuw i8, ptr %11, i64 96
  %24 = load ptr, ptr %23, align 8, !tbaa !77
  %25 = getelementptr inbounds nuw i8, ptr %11, i64 104
  %26 = load ptr, ptr %25, align 8, !tbaa !78
  %27 = getelementptr inbounds nuw i8, ptr %11, i64 32
  %28 = load i32, ptr %27, align 8, !tbaa !56
  %.not11 = icmp eq i32 %28, 0
  %29 = zext i1 %.not11 to i32
  %30 = load ptr, ptr %5, align 8, !tbaa !142
  %31 = load double, ptr %2, align 8, !tbaa !80
  %32 = getelementptr inbounds nuw i8, ptr %11, i64 232
  %33 = load ptr, ptr %32, align 8, !tbaa !54
  %34 = call i32 %20(double noundef %22, ptr noundef %24, ptr noundef %26, i32 noundef %29, ptr noundef %30, double noundef %31, ptr noundef %33) #13
  br label %arkLs_AccessARKODELMem.exit.thread

arkLs_AccessARKODELMem.exit.thread:               ; preds = %13, %7, %18, %17
  %.0 = phi i32 [ %16, %17 ], [ %34, %18 ], [ -2, %13 ], [ -1, %7 ]
  call void @llvm.lifetime.end.p0(i64 8, ptr nonnull %5) #13
  call void @llvm.lifetime.end.p0(i64 4, ptr nonnull %4) #13
  call void @llvm.lifetime.end.p0(i64 8, ptr nonnull %3) #13
  call void @llvm.lifetime.end.p0(i64 8, ptr nonnull %2) #13
  ret i32 %.0
}